target datalayout = "e-m:e-p270:32:32-p271:32:32-p272:64:64-i64:64-i128:128-f80:128-n8:16:32:64-S128"
target triple = "x86_64-unknown-linux-gnu"

@.str = private unnamed_addr constant [6 x i8] c"empty\00", align 1
@.str.1 = private unnamed_addr constant [10 x i8] c"singleton\00", align 1
@.str.2 = private unnamed_addr constant [9 x i8] c"multiple\00", align 1
@.str.3 = private unnamed_addr constant [106 x i8] c"generated/home/dtcxzyw/WorkSpace/Projects/compilers/llvm-opt-benchmark/bench/z3/z3/src/math/dd/dd_fdd.cpp\00", align 1
@.str.4 = private unnamed_addr constant [29 x i8] c"UNEXPECTED CODE WAS REACHED.\00", align 1

; Function Attrs: mustprogress uwtable
define hidden noundef nonnull align 8 dereferenceable(8) ptr @_ZN2ddlsERSoNS_6find_tE(ptr noundef nonnull align 8 dereferenceable(8) %out, i32 noundef %x) #4 {
entry:
  %retval = alloca ptr, align 8
  %out.addr = alloca ptr, align 8
  %x.addr = alloca i32, align 4
  store ptr %out, ptr %out.addr, align 8
  store i32 %x, ptr %x.addr, align 4
  %0 = load i32, ptr %x.addr, align 4
  switch i32 %0, label %sw.epilog [
    i32 0, label %sw.bb
    i32 1, label %sw.bb1
    i32 2, label %sw.bb3
  ]

sw.bb:                                            ; preds = %entry
  %1 = load ptr, ptr %out.addr, align 8
  %call = call noundef nonnull align 8 dereferenceable(8) ptr @_ZStlsISt11char_traitsIcEERSt13basic_ostreamIcT_ES5_PKc(ptr noundef nonnull align 8 dereferenceable(8) %1, ptr noundef @.str)
  store ptr %call, ptr %retval, align 8
  br label %return

sw.bb1:                                           ; preds = %entry
  %2 = load ptr, ptr %out.addr, align 8
  %call2 = call noundef nonnull align 8 dereferenceable(8) ptr @_ZStlsISt11char_traitsIcEERSt13basic_ostreamIcT_ES5_PKc(ptr noundef nonnull align 8 dereferenceable(8) %2, ptr noundef @.str.1)
  store ptr %call2, ptr %retval, align 8
  br label %return

sw.bb3:                                           ; preds = %entry
  %3 = load ptr, ptr %out.addr, align 8
  %call4 = call noundef nonnull align 8 dereferenceable(8) ptr @_ZStlsISt11char_traitsIcEERSt13basic_ostreamIcT_ES5_PKc(ptr noundef nonnull align 8 dereferenceable(8) %3, ptr noundef @.str.2)
  store ptr %call4, ptr %retval, align 8
  br label %return

sw.epilog:                                        ; preds = %entry
  call void @_Z26notify_assertion_violationPKciS0_(ptr noundef @.str.3, i32 noundef 119, ptr noundef @.str.4)
  call void @exit(i32 noundef 114) #13
  unreachable

return:                                           ; preds = %sw.bb3, %sw.bb1, %sw.bb
  %4 = load ptr, ptr %retval, align 8
  ret ptr %4
}