; Function Attrs: mustprogress uwtable
define hidden noundef nonnull align 8 dereferenceable(8) ptr @_ZN2ddlsERSoNS_6find_tE(ptr noundef nonnull align 8 dereferenceable(8) %out, i32 noundef %x) local_unnamed_addr #3 {
entry:
  %0 = icmp ult i32 %x, 3
  br i1 %0, label %switch.lookup, label %sw.epilog

sw.epilog:                                        ; preds = %entry
  tail call void @_Z26notify_assertion_violationPKciS0_(ptr noundef nonnull @.str.3, i32 noundef 119, ptr noundef nonnull @.str.4)
  tail call void @exit(i32 noundef 114) #16
  unreachable

switch.lookup:                                    ; preds = %entry
  %1 = zext nneg i32 %x to i64
  %switch.gep = getelementptr inbounds [3 x ptr], ptr @switch.table._ZN2ddlsERSoNS_6find_tE, i64 0, i64 %1
  %switch.load = load ptr, ptr %switch.gep, align 8
  %call4 = tail call noundef nonnull align 8 dereferenceable(8) ptr @_ZStlsISt11char_traitsIcEERSt13basic_ostreamIcT_ES5_PKc(ptr noundef nonnull align 8 dereferenceable(8) %out, ptr noundef nonnull %switch.load)
  ret ptr %call4
}